target datalayout = "e-m:e-p270:32:32-p271:32:32-p272:64:64-i64:64-i128:128-f80:128-n8:16:32:64-S128"
target triple = "x86_64-pc-linux-gnu"

@libctx = internal global ptr null, align 8
@.str.3 = private unnamed_addr constant [32 x i8] c"../openssl/test/evp_skey_test.c\00", align 1
@.str.11 = private unnamed_addr constant [27 x i8] c"ctx = EVP_CIPHER_CTX_new()\00", align 1
@.str.13 = private unnamed_addr constant [2 x i8] c"0\00", align 1
@.str.18 = private unnamed_addr constant [8 x i8] c"default\00", align 1
@deflprov = internal global ptr null, align 8
@.str.19 = private unnamed_addr constant [9 x i8] c"deflprov\00", align 1
@.str.21 = private unnamed_addr constant [17 x i8] c"provider=default\00", align 1
@.str.24 = private unnamed_addr constant [5 x i8] c"skey\00", align 1
@.str.25 = private unnamed_addr constant [56 x i8] c"EVP_SKEY_get_raw_key(skey, &export_key, &export_length)\00", align 1
@.str.27 = private unnamed_addr constant [11 x i8] c"export_key\00", align 1
@.str.29 = private unnamed_addr constant [65 x i8] c"EVP_CipherUpdate(ctx, encrypted_skey, &enc_len, data, DATA_SIZE)\00", align 1
@.str.30 = private unnamed_addr constant [57 x i8] c"EVP_CipherFinal(ctx, encrypted_skey + enc_len, &fin_len)\00", align 1
@.str.32 = private unnamed_addr constant [64 x i8] c"EVP_CipherUpdate(ctx, encrypted_raw, &enc_len, data, DATA_SIZE)\00", align 1
@.str.33 = private unnamed_addr constant [56 x i8] c"EVP_CipherFinal(ctx, encrypted_raw + enc_len, &fin_len)\00", align 1
@.str.34 = private unnamed_addr constant [15 x i8] c"encrypted_skey\00", align 1
@.str.35 = private unnamed_addr constant [14 x i8] c"encrypted_raw\00", align 1
@__const.test_des_raw_skey.data = private unnamed_addr constant [32 x i8] c"\02\02\02\02\02\02\02\02\02\02\02\02\02\02\02\02\02\02\02\02\02\02\02\02\02\02\02\02\02\02\02\02", align 16
@.str.36 = private unnamed_addr constant [13 x i8] c"DES-EDE3-CBC\00", align 1
@.str.37 = private unnamed_addr constant [8 x i8] c"des_cbc\00", align 1
@.str.38 = private unnamed_addr constant [4 x i8] c"DES\00", align 1
@.str.39 = private unnamed_addr constant [8 x i8] c"des_key\00", align 1
@.str.40 = private unnamed_addr constant [70 x i8] c"EVP_CipherInit_SKEY(ctx, des_cbc, skey, des_iv, DES_IV_SIZE, 1, NULL)\00", align 1
@.str.41 = private unnamed_addr constant [59 x i8] c"EVP_CipherInit_ex2(ctx, des_cbc, des_key, des_iv, 1, NULL)\00", align 1

; Function Attrs: nounwind uwtable
define internal i32 @test_des_raw_skey() #0 {
  %1 = alloca i32, align 4
  %2 = alloca [32 x i8], align 16
  %3 = alloca [24 x i8], align 16
  %4 = alloca [8 x i8], align 1
  %5 = alloca [40 x i8], align 16
  %6 = alloca [40 x i8], align 16
  %7 = alloca i32, align 4
  %8 = alloca i32, align 4
  %9 = alloca ptr, align 8
  %10 = alloca i64, align 8
  %11 = alloca ptr, align 8
  %12 = alloca ptr, align 8
  %13 = alloca ptr, align 8
  %14 = alloca i32, align 4
  %15 = alloca i32, align 4
  call void @llvm.lifetime.start.p0(i64 32, ptr %2) #5
  call void @llvm.memcpy.p0.p0.i64(ptr align 16 %2, ptr align 16 @__const.test_des_raw_skey.data, i64 32, i1 false)
  call void @llvm.lifetime.start.p0(i64 24, ptr %3) #5
  call void @llvm.lifetime.start.p0(i64 8, ptr %4) #5
  call void @llvm.lifetime.start.p0(i64 40, ptr %5) #5
  call void @llvm.lifetime.start.p0(i64 40, ptr %6) #5
  call void @llvm.lifetime.start.p0(i64 4, ptr %7) #5
  call void @llvm.lifetime.start.p0(i64 4, ptr %8) #5
  call void @llvm.lifetime.start.p0(i64 8, ptr %9) #5
  store ptr null, ptr %9, align 8, !tbaa !22
  call void @llvm.lifetime.start.p0(i64 8, ptr %10) #5
  call void @llvm.lifetime.start.p0(i64 8, ptr %11) #5
  store ptr null, ptr %11, align 8, !tbaa !15
  call void @llvm.lifetime.start.p0(i64 8, ptr %12) #5
  store ptr null, ptr %12, align 8, !tbaa !17
  call void @llvm.lifetime.start.p0(i64 8, ptr %13) #5
  store ptr null, ptr %13, align 8, !tbaa !13
  call void @llvm.lifetime.start.p0(i64 4, ptr %14) #5
  store i32 0, ptr %14, align 4, !tbaa !9
  %16 = load ptr, ptr @libctx, align 8, !tbaa !4
  %17 = call ptr @OSSL_PROVIDER_load(ptr noundef %16, ptr noundef @.str.18)
  store ptr %17, ptr @deflprov, align 8, !tbaa !11
  %18 = load ptr, ptr @deflprov, align 8, !tbaa !11
  %19 = call i32 @test_ptr(ptr noundef @.str.3, i32 noundef 195, ptr noundef @.str.19, ptr noundef %18)
  %20 = icmp ne i32 %19, 0
  br i1 %20, label %22, label %21

21:                                               ; preds = %0
  store i32 0, ptr %1, align 4
  store i32 1, ptr %15, align 4
  br label %122

22:                                               ; preds = %0
  %23 = getelementptr inbounds [40 x i8], ptr %5, i64 0, i64 0
  call void @llvm.memset.p0.i64(ptr align 16 %23, i8 0, i64 40, i1 false)
  %24 = getelementptr inbounds [40 x i8], ptr %6, i64 0, i64 0
  call void @llvm.memset.p0.i64(ptr align 16 %24, i8 0, i64 40, i1 false)
  %25 = getelementptr inbounds [24 x i8], ptr %3, i64 0, i64 0
  call void @llvm.memset.p0.i64(ptr align 16 %25, i8 1, i64 24, i1 false)
  %26 = getelementptr inbounds [8 x i8], ptr %4, i64 0, i64 0
  call void @llvm.memset.p0.i64(ptr align 1 %26, i8 2, i64 8, i1 false)
  %27 = load ptr, ptr @libctx, align 8, !tbaa !4
  %28 = call ptr @EVP_CIPHER_fetch(ptr noundef %27, ptr noundef @.str.36, ptr noundef @.str.21)
  store ptr %28, ptr %11, align 8, !tbaa !15
  %29 = load ptr, ptr %11, align 8, !tbaa !15
  %30 = call i32 @test_ptr(ptr noundef @.str.3, i32 noundef 205, ptr noundef @.str.37, ptr noundef %29)
  %31 = icmp ne i32 %30, 0
  br i1 %31, label %33, label %32

32:                                               ; preds = %22
  br label %115

33:                                               ; preds = %22
  %34 = load ptr, ptr @libctx, align 8, !tbaa !4
  %35 = getelementptr inbounds [24 x i8], ptr %3, i64 0, i64 0
  %36 = call ptr @EVP_SKEY_import_raw_key(ptr noundef %34, ptr noundef @.str.38, ptr noundef %35, i64 noundef 24, ptr noundef null)
  store ptr %36, ptr %13, align 8, !tbaa !13
  %37 = load ptr, ptr %13, align 8, !tbaa !13
  %38 = call i32 @test_ptr(ptr noundef @.str.3, i32 noundef 211, ptr noundef @.str.24, ptr noundef %37)
  %39 = icmp ne i32 %38, 0
  br i1 %39, label %41, label %40

40:                                               ; preds = %33
  br label %115

41:                                               ; preds = %33
  %42 = load ptr, ptr %13, align 8, !tbaa !13
  %43 = call i32 @EVP_SKEY_get_raw_key(ptr noundef %42, ptr noundef %9, ptr noundef %10)
  %44 = call i32 @test_int_gt(ptr noundef @.str.3, i32 noundef 214, ptr noundef @.str.25, ptr noundef @.str.13, i32 noundef %43, i32 noundef 0)
  %45 = icmp ne i32 %44, 0
  br i1 %45, label %46, label %52

46:                                               ; preds = %41
  %47 = getelementptr inbounds [24 x i8], ptr %3, i64 0, i64 0
  %48 = load ptr, ptr %9, align 8, !tbaa !22
  %49 = load i64, ptr %10, align 8, !tbaa !25
  %50 = call i32 @test_mem_eq(ptr noundef @.str.3, i32 noundef 215, ptr noundef @.str.39, ptr noundef @.str.27, ptr noundef %47, i64 noundef 24, ptr noundef %48, i64 noundef %49)
  %51 = icmp ne i32 %50, 0
  br i1 %51, label %53, label %52

52:                                               ; preds = %46, %41
  br label %115

53:                                               ; preds = %46
  store i32 40, ptr %7, align 4, !tbaa !9
  store i32 0, ptr %8, align 4, !tbaa !9
  %54 = call ptr @EVP_CIPHER_CTX_new()
  store ptr %54, ptr %12, align 8, !tbaa !17
  %55 = call i32 @test_ptr(ptr noundef @.str.3, i32 noundef 220, ptr noundef @.str.11, ptr noundef %54)
  %56 = icmp ne i32 %55, 0
  br i1 %56, label %57, label %81

57:                                               ; preds = %53
  %58 = load ptr, ptr %12, align 8, !tbaa !17
  %59 = load ptr, ptr %11, align 8, !tbaa !15
  %60 = load ptr, ptr %13, align 8, !tbaa !13
  %61 = getelementptr inbounds [8 x i8], ptr %4, i64 0, i64 0
  %62 = call i32 @EVP_CipherInit_SKEY(ptr noundef %58, ptr noundef %59, ptr noundef %60, ptr noundef %61, i64 noundef 8, i32 noundef 1, ptr noundef null)
  %63 = call i32 @test_int_gt(ptr noundef @.str.3, i32 noundef 221, ptr noundef @.str.40, ptr noundef @.str.13, i32 noundef %62, i32 noundef 0)
  %64 = icmp ne i32 %63, 0
  br i1 %64, label %65, label %81

65:                                               ; preds = %57
  %66 = load ptr, ptr %12, align 8, !tbaa !17
  %67 = getelementptr inbounds [40 x i8], ptr %5, i64 0, i64 0
  %68 = getelementptr inbounds [32 x i8], ptr %2, i64 0, i64 0
  %69 = call i32 @EVP_CipherUpdate(ptr noundef %66, ptr noundef %67, ptr noundef %7, ptr noundef %68, i32 noundef 32)
  %70 = call i32 @test_int_gt(ptr noundef @.str.3, i32 noundef 222, ptr noundef @.str.29, ptr noundef @.str.13, i32 noundef %69, i32 noundef 0)
  %71 = icmp ne i32 %70, 0
  br i1 %71, label %72, label %81

72:                                               ; preds = %65
  %73 = load ptr, ptr %12, align 8, !tbaa !17
  %74 = getelementptr inbounds [40 x i8], ptr %5, i64 0, i64 0
  %75 = load i32, ptr %7, align 4, !tbaa !9
  %76 = sext i32 %75 to i64
  %77 = getelementptr inbounds i8, ptr %74, i64 %76
  %78 = call i32 @EVP_CipherFinal(ptr noundef %73, ptr noundef %77, ptr noundef %8)
  %79 = call i32 @test_int_gt(ptr noundef @.str.3, i32 noundef 223, ptr noundef @.str.30, ptr noundef @.str.13, i32 noundef %78, i32 noundef 0)
  %80 = icmp ne i32 %79, 0
  br i1 %80, label %82, label %81

81:                                               ; preds = %72, %65, %57, %53
  br label %115

82:                                               ; preds = %72
  %83 = load ptr, ptr %12, align 8, !tbaa !17
  call void @EVP_CIPHER_CTX_free(ptr noundef %83)
  %84 = call ptr @EVP_CIPHER_CTX_new()
  store ptr %84, ptr %12, align 8, !tbaa !17
  store i32 40, ptr %7, align 4, !tbaa !9
  store i32 0, ptr %8, align 4, !tbaa !9
  %85 = load ptr, ptr %12, align 8, !tbaa !17
  %86 = load ptr, ptr %11, align 8, !tbaa !15
  %87 = getelementptr inbounds [24 x i8], ptr %3, i64 0, i64 0
  %88 = getelementptr inbounds [8 x i8], ptr %4, i64 0, i64 0
  %89 = call i32 @EVP_CipherInit_ex2(ptr noundef %85, ptr noundef %86, ptr noundef %87, ptr noundef %88, i32 noundef 1, ptr noundef null)
  %90 = call i32 @test_int_gt(ptr noundef @.str.3, i32 noundef 231, ptr noundef @.str.41, ptr noundef @.str.13, i32 noundef %89, i32 noundef 0)
  %91 = icmp ne i32 %90, 0
  br i1 %91, label %92, label %113

92:                                               ; preds = %82
  %93 = load ptr, ptr %12, align 8, !tbaa !17
  %94 = getelementptr inbounds [40 x i8], ptr %6, i64 0, i64 0
  %95 = getelementptr inbounds [32 x i8], ptr %2, i64 0, i64 0
  %96 = call i32 @EVP_CipherUpdate(ptr noundef %93, ptr noundef %94, ptr noundef %7, ptr noundef %95, i32 noundef 32)
  %97 = call i32 @test_int_gt(ptr noundef @.str.3, i32 noundef 232, ptr noundef @.str.32, ptr noundef @.str.13, i32 noundef %96, i32 noundef 0)
  %98 = icmp ne i32 %97, 0
  br i1 %98, label %99, label %113

99:                                               ; preds = %92
  %100 = load ptr, ptr %12, align 8, !tbaa !17
  %101 = getelementptr inbounds [40 x i8], ptr %6, i64 0, i64 0
  %102 = load i32, ptr %7, align 4, !tbaa !9
  %103 = sext i32 %102 to i64
  %104 = getelementptr inbounds i8, ptr %101, i64 %103
  %105 = call i32 @EVP_CipherFinal(ptr noundef %100, ptr noundef %104, ptr noundef %8)
  %106 = call i32 @test_int_gt(ptr noundef @.str.3, i32 noundef 233, ptr noundef @.str.33, ptr noundef @.str.13, i32 noundef %105, i32 noundef 0)
  %107 = icmp ne i32 %106, 0
  br i1 %107, label %108, label %113

108:                                              ; preds = %99
  %109 = getelementptr inbounds [40 x i8], ptr %5, i64 0, i64 0
  %110 = getelementptr inbounds [40 x i8], ptr %6, i64 0, i64 0
  %111 = call i32 @test_mem_eq(ptr noundef @.str.3, i32 noundef 235, ptr noundef @.str.34, ptr noundef @.str.35, ptr noundef %109, i64 noundef 40, ptr noundef %110, i64 noundef 40)
  %112 = icmp ne i32 %111, 0
  br i1 %112, label %114, label %113

113:                                              ; preds = %108, %99, %92, %82
  br label %115

114:                                              ; preds = %108
  store i32 1, ptr %14, align 4, !tbaa !9
  br label %115

115:                                              ; preds = %114, %113, %81, %52, %40, %32
  %116 = load ptr, ptr %13, align 8, !tbaa !13
  call void @EVP_SKEY_free(ptr noundef %116)
  %117 = load ptr, ptr %11, align 8, !tbaa !15
  call void @EVP_CIPHER_free(ptr noundef %117)
  %118 = load ptr, ptr %12, align 8, !tbaa !17
  call void @EVP_CIPHER_CTX_free(ptr noundef %118)
  %119 = load ptr, ptr @deflprov, align 8, !tbaa !11
  %120 = call i32 @OSSL_PROVIDER_unload(ptr noundef %119)
  %121 = load i32, ptr %14, align 4, !tbaa !9
  store i32 %121, ptr %1, align 4
  store i32 1, ptr %15, align 4
  br label %122

122:                                              ; preds = %115, %21
  call void @llvm.lifetime.end.p0(i64 4, ptr %14) #5
  call void @llvm.lifetime.end.p0(i64 8, ptr %13) #5
  call void @llvm.lifetime.end.p0(i64 8, ptr %12) #5
  call void @llvm.lifetime.end.p0(i64 8, ptr %11) #5
  call void @llvm.lifetime.end.p0(i64 8, ptr %10) #5
  call void @llvm.lifetime.end.p0(i64 8, ptr %9) #5
  call void @llvm.lifetime.end.p0(i64 4, ptr %8) #5
  call void @llvm.lifetime.end.p0(i64 4, ptr %7) #5
  call void @llvm.lifetime.end.p0(i64 40, ptr %6) #5
  call void @llvm.lifetime.end.p0(i64 40, ptr %5) #5
  call void @llvm.lifetime.end.p0(i64 8, ptr %4) #5
  call void @llvm.lifetime.end.p0(i64 24, ptr %3) #5
  call void @llvm.lifetime.end.p0(i64 32, ptr %2) #5
  %123 = load i32, ptr %1, align 4
  ret i32 %123
}