; Function Attrs: nounwind uwtable
define internal range(i32 0, 2) i32 @test_des_raw_skey() #0 {
  %1 = alloca [32 x i8], align 16
  %2 = alloca [24 x i8], align 16
  %3 = alloca [8 x i8], align 8
  %4 = alloca [40 x i8], align 16
  %5 = alloca [40 x i8], align 16
  %6 = alloca i32, align 4
  %7 = alloca i32, align 4
  %8 = alloca ptr, align 8
  %9 = alloca i64, align 8
  call void @llvm.lifetime.start.p0(i64 32, ptr nonnull %1) #5
  call void @llvm.memset.p0.i64(ptr noundef nonnull align 16 dereferenceable(32) %1, i8 2, i64 32, i1 false)
  call void @llvm.lifetime.start.p0(i64 24, ptr nonnull %2) #5
  call void @llvm.lifetime.start.p0(i64 8, ptr nonnull %3) #5
  call void @llvm.lifetime.start.p0(i64 40, ptr nonnull %4) #5
  call void @llvm.lifetime.start.p0(i64 40, ptr nonnull %5) #5
  call void @llvm.lifetime.start.p0(i64 4, ptr nonnull %6) #5
  call void @llvm.lifetime.start.p0(i64 4, ptr nonnull %7) #5
  call void @llvm.lifetime.start.p0(i64 8, ptr nonnull %8) #5
  store ptr null, ptr %8, align 8, !tbaa !12
  call void @llvm.lifetime.start.p0(i64 8, ptr nonnull %9) #5
  %10 = load ptr, ptr @libctx, align 8, !tbaa !4
  %11 = tail call ptr @OSSL_PROVIDER_load(ptr noundef %10, ptr noundef nonnull @.str.18) #5
  store ptr %11, ptr @deflprov, align 8, !tbaa !19
  %12 = tail call i32 @test_ptr(ptr noundef nonnull @.str.3, i32 noundef 195, ptr noundef nonnull @.str.19, ptr noundef %11) #5
  %.not = icmp eq i32 %12, 0
  br i1 %.not, label %61, label %13

13:                                               ; preds = %0
  call void @llvm.memset.p0.i64(ptr noundef nonnull align 16 dereferenceable(40) %4, i8 0, i64 40, i1 false)
  call void @llvm.memset.p0.i64(ptr noundef nonnull align 16 dereferenceable(40) %5, i8 0, i64 40, i1 false)
  call void @llvm.memset.p0.i64(ptr noundef nonnull align 16 dereferenceable(24) %2, i8 1, i64 24, i1 false)
  store i64 144680345676153346, ptr %3, align 8
  %14 = load ptr, ptr @libctx, align 8, !tbaa !4
  %15 = tail call ptr @EVP_CIPHER_fetch(ptr noundef %14, ptr noundef nonnull @.str.36, ptr noundef nonnull @.str.21) #5
  %16 = tail call i32 @test_ptr(ptr noundef nonnull @.str.3, i32 noundef 205, ptr noundef nonnull @.str.37, ptr noundef %15) #5
  %.not20 = icmp eq i32 %16, 0
  br i1 %.not20, label %58, label %17

17:                                               ; preds = %13
  %18 = load ptr, ptr @libctx, align 8, !tbaa !4
  %19 = call ptr @EVP_SKEY_import_raw_key(ptr noundef %18, ptr noundef nonnull @.str.38, ptr noundef nonnull %2, i64 noundef 24, ptr noundef null) #5
  %20 = call i32 @test_ptr(ptr noundef nonnull @.str.3, i32 noundef 211, ptr noundef nonnull @.str.24, ptr noundef %19) #5
  %.not21 = icmp eq i32 %20, 0
  br i1 %.not21, label %58, label %21

21:                                               ; preds = %17
  %22 = call i32 @EVP_SKEY_get_raw_key(ptr noundef %19, ptr noundef nonnull %8, ptr noundef nonnull %9) #5
  %23 = call i32 @test_int_gt(ptr noundef nonnull @.str.3, i32 noundef 214, ptr noundef nonnull @.str.25, ptr noundef nonnull @.str.13, i32 noundef %22, i32 noundef 0) #5
  %.not22 = icmp eq i32 %23, 0
  br i1 %.not22, label %58, label %24

24:                                               ; preds = %21
  %25 = load ptr, ptr %8, align 8, !tbaa !12
  %26 = load i64, ptr %9, align 8, !tbaa !17
  %27 = call i32 @test_mem_eq(ptr noundef nonnull @.str.3, i32 noundef 215, ptr noundef nonnull @.str.39, ptr noundef nonnull @.str.27, ptr noundef nonnull %2, i64 noundef 24, ptr noundef %25, i64 noundef %26) #5
  %.not23 = icmp eq i32 %27, 0
  br i1 %.not23, label %58, label %28

28:                                               ; preds = %24
  store i32 40, ptr %6, align 4, !tbaa !14
  store i32 0, ptr %7, align 4, !tbaa !14
  %29 = call ptr @EVP_CIPHER_CTX_new() #5
  %30 = call i32 @test_ptr(ptr noundef nonnull @.str.3, i32 noundef 220, ptr noundef nonnull @.str.11, ptr noundef %29) #5
  %.not24 = icmp eq i32 %30, 0
  br i1 %.not24, label %58, label %31

31:                                               ; preds = %28
  %32 = call i32 @EVP_CipherInit_SKEY(ptr noundef %29, ptr noundef %15, ptr noundef %19, ptr noundef nonnull %3, i64 noundef 8, i32 noundef 1, ptr noundef null) #5
  %33 = call i32 @test_int_gt(ptr noundef nonnull @.str.3, i32 noundef 221, ptr noundef nonnull @.str.40, ptr noundef nonnull @.str.13, i32 noundef %32, i32 noundef 0) #5
  %.not25 = icmp eq i32 %33, 0
  br i1 %.not25, label %58, label %34

34:                                               ; preds = %31
  %35 = call i32 @EVP_CipherUpdate(ptr noundef %29, ptr noundef nonnull %4, ptr noundef nonnull %6, ptr noundef nonnull %1, i32 noundef 32) #5
  %36 = call i32 @test_int_gt(ptr noundef nonnull @.str.3, i32 noundef 222, ptr noundef nonnull @.str.29, ptr noundef nonnull @.str.13, i32 noundef %35, i32 noundef 0) #5
  %.not26 = icmp eq i32 %36, 0
  br i1 %.not26, label %58, label %37

37:                                               ; preds = %34
  %38 = load i32, ptr %6, align 4, !tbaa !14
  %39 = sext i32 %38 to i64
  %40 = getelementptr inbounds i8, ptr %4, i64 %39
  %41 = call i32 @EVP_CipherFinal(ptr noundef %29, ptr noundef nonnull %40, ptr noundef nonnull %7) #5
  %42 = call i32 @test_int_gt(ptr noundef nonnull @.str.3, i32 noundef 223, ptr noundef nonnull @.str.30, ptr noundef nonnull @.str.13, i32 noundef %41, i32 noundef 0) #5
  %.not27 = icmp eq i32 %42, 0
  br i1 %.not27, label %58, label %43

43:                                               ; preds = %37
  call void @EVP_CIPHER_CTX_free(ptr noundef %29) #5
  %44 = call ptr @EVP_CIPHER_CTX_new() #5
  store i32 40, ptr %6, align 4, !tbaa !14
  store i32 0, ptr %7, align 4, !tbaa !14
  %45 = call i32 @EVP_CipherInit_ex2(ptr noundef %44, ptr noundef %15, ptr noundef nonnull %2, ptr noundef nonnull %3, i32 noundef 1, ptr noundef null) #5
  %46 = call i32 @test_int_gt(ptr noundef nonnull @.str.3, i32 noundef 231, ptr noundef nonnull @.str.41, ptr noundef nonnull @.str.13, i32 noundef %45, i32 noundef 0) #5
  %.not28 = icmp eq i32 %46, 0
  br i1 %.not28, label %58, label %47

47:                                               ; preds = %43
  %48 = call i32 @EVP_CipherUpdate(ptr noundef %44, ptr noundef nonnull %5, ptr noundef nonnull %6, ptr noundef nonnull %1, i32 noundef 32) #5
  %49 = call i32 @test_int_gt(ptr noundef nonnull @.str.3, i32 noundef 232, ptr noundef nonnull @.str.32, ptr noundef nonnull @.str.13, i32 noundef %48, i32 noundef 0) #5
  %.not29 = icmp eq i32 %49, 0
  br i1 %.not29, label %58, label %50

50:                                               ; preds = %47
  %51 = load i32, ptr %6, align 4, !tbaa !14
  %52 = sext i32 %51 to i64
  %53 = getelementptr inbounds i8, ptr %5, i64 %52
  %54 = call i32 @EVP_CipherFinal(ptr noundef %44, ptr noundef nonnull %53, ptr noundef nonnull %7) #5
  %55 = call i32 @test_int_gt(ptr noundef nonnull @.str.3, i32 noundef 233, ptr noundef nonnull @.str.33, ptr noundef nonnull @.str.13, i32 noundef %54, i32 noundef 0) #5
  %.not30 = icmp eq i32 %55, 0
  br i1 %.not30, label %58, label %56

56:                                               ; preds = %50
  %57 = call i32 @test_mem_eq(ptr noundef nonnull @.str.3, i32 noundef 235, ptr noundef nonnull @.str.34, ptr noundef nonnull @.str.35, ptr noundef nonnull %4, i64 noundef 40, ptr noundef nonnull %5, i64 noundef 40) #5
  %.not31 = icmp ne i32 %57, 0
  %spec.select = zext i1 %.not31 to i32
  br label %58

58:                                               ; preds = %56, %43, %47, %50, %28, %31, %34, %37, %21, %24, %17, %13
  %.018 = phi ptr [ %44, %50 ], [ %44, %47 ], [ %44, %43 ], [ %29, %37 ], [ %29, %34 ], [ %29, %31 ], [ %29, %28 ], [ null, %24 ], [ null, %21 ], [ null, %17 ], [ null, %13 ], [ %44, %56 ]
  %.017 = phi ptr [ %19, %50 ], [ %19, %47 ], [ %19, %43 ], [ %19, %37 ], [ %19, %34 ], [ %19, %31 ], [ %19, %28 ], [ %19, %24 ], [ %19, %21 ], [ %19, %17 ], [ null, %13 ], [ %19, %56 ]
  %.0 = phi i32 [ 0, %50 ], [ 0, %47 ], [ 0, %43 ], [ 0, %37 ], [ 0, %34 ], [ 0, %31 ], [ 0, %28 ], [ 0, %24 ], [ 0, %21 ], [ 0, %17 ], [ 0, %13 ], [ %spec.select, %56 ]
  call void @EVP_SKEY_free(ptr noundef %.017) #5
  call void @EVP_CIPHER_free(ptr noundef %15) #5
  call void @EVP_CIPHER_CTX_free(ptr noundef %.018) #5
  %59 = load ptr, ptr @deflprov, align 8, !tbaa !19
  %60 = call i32 @OSSL_PROVIDER_unload(ptr noundef %59) #5
  br label %61

61:                                               ; preds = %0, %58
  %.019 = phi i32 [ %.0, %58 ], [ 0, %0 ]
  call void @llvm.lifetime.end.p0(i64 8, ptr nonnull %9) #5
  call void @llvm.lifetime.end.p0(i64 8, ptr nonnull %8) #5
  call void @llvm.lifetime.end.p0(i64 4, ptr nonnull %7) #5
  call void @llvm.lifetime.end.p0(i64 4, ptr nonnull %6) #5
  call void @llvm.lifetime.end.p0(i64 40, ptr nonnull %5) #5
  call void @llvm.lifetime.end.p0(i64 40, ptr nonnull %4) #5
  call void @llvm.lifetime.end.p0(i64 8, ptr nonnull %3) #5
  call void @llvm.lifetime.end.p0(i64 24, ptr nonnull %2) #5
  call void @llvm.lifetime.end.p0(i64 32, ptr nonnull %1) #5
  ret i32 %.019
}